target datalayout = "e-m:e-p270:32:32-p271:32:32-p272:64:64-i64:64-i128:128-f80:128-n8:16:32:64-S128"
target triple = "x86_64-pc-linux-gnu"

%struct._psqlSettings = type { ptr, i32, ptr, i8, ptr, ptr, %struct.printQueryOpt, ptr, ptr, ptr, i8, i8, i32, i32, ptr, ptr, i8, [4 x ptr], i8, i32, ptr, i8, i32, ptr, ptr, i64, i64, i8, ptr, ptr, ptr, i8, i8, i8, i8, i8, i8, i8, i32, i32, i32, i32, i32, i32, i32, i32, ptr, ptr, ptr, i32, i8, i32 }
%struct.printQueryOpt = type { %struct.printTableOpt, ptr, ptr, ptr, i8, ptr, i32 }
%struct.printTableOpt = type { i32, i16, i32, i32, i16, i16, i32, i8, i8, i8, i8, i64, ptr, %struct.separator, %struct.separator, [2 x i8], i8, ptr, i32, i32, i32, i32, i32, i32 }
%struct.separator = type { ptr, i8 }

@pset = external global %struct._psqlSettings, align 8
@.str.103 = private unnamed_addr constant [3 x i8] c"gx\00", align 1
@.str.247 = private unnamed_addr constant [31 x i8] c"\\%s: missing right parenthesis\00", align 1

; Function Attrs: nounwind uwtable
define dso_local void @restorePsetInfo(ptr noundef %0, ptr noundef %1) #0 {
  %3 = alloca ptr, align 8
  %4 = alloca ptr, align 8
  store ptr %0, ptr %3, align 8
  store ptr %1, ptr %4, align 8
  %5 = load ptr, ptr %3, align 8
  %6 = getelementptr inbounds nuw %struct.printQueryOpt, ptr %5, i32 0, i32 0
  %7 = getelementptr inbounds nuw %struct.printTableOpt, ptr %6, i32 0, i32 13
  %8 = getelementptr inbounds nuw %struct.separator, ptr %7, i32 0, i32 0
  %9 = load ptr, ptr %8, align 8
  call void @free(ptr noundef %9) #10
  %10 = load ptr, ptr %3, align 8
  %11 = getelementptr inbounds nuw %struct.printQueryOpt, ptr %10, i32 0, i32 0
  %12 = getelementptr inbounds nuw %struct.printTableOpt, ptr %11, i32 0, i32 14
  %13 = getelementptr inbounds nuw %struct.separator, ptr %12, i32 0, i32 0
  %14 = load ptr, ptr %13, align 8
  call void @free(ptr noundef %14) #10
  %15 = load ptr, ptr %3, align 8
  %16 = getelementptr inbounds nuw %struct.printQueryOpt, ptr %15, i32 0, i32 0
  %17 = getelementptr inbounds nuw %struct.printTableOpt, ptr %16, i32 0, i32 17
  %18 = load ptr, ptr %17, align 8
  call void @free(ptr noundef %18) #10
  %19 = load ptr, ptr %3, align 8
  %20 = getelementptr inbounds nuw %struct.printQueryOpt, ptr %19, i32 0, i32 1
  %21 = load ptr, ptr %20, align 8
  call void @free(ptr noundef %21) #10
  %22 = load ptr, ptr %3, align 8
  %23 = getelementptr inbounds nuw %struct.printQueryOpt, ptr %22, i32 0, i32 2
  %24 = load ptr, ptr %23, align 8
  call void @free(ptr noundef %24) #10
  %25 = load ptr, ptr %3, align 8
  %26 = load ptr, ptr %4, align 8
  call void @llvm.memcpy.p0.p0.i64(ptr align 8 %25, ptr align 8 %26, i64 168, i1 false)
  %27 = load ptr, ptr %4, align 8
  call void @free(ptr noundef %27) #10
  ret void
}

; Function Attrs: nounwind uwtable
define internal i32 @process_command_g_options(ptr noundef %0, ptr noundef %1, i1 noundef zeroext %2, ptr noundef %3) #0 {
  %5 = alloca ptr, align 8
  %6 = alloca ptr, align 8
  %7 = alloca i8, align 1
  %8 = alloca ptr, align 8
  %9 = alloca i8, align 1
  %10 = alloca i8, align 1
  %11 = alloca ptr, align 8
  %12 = alloca i64, align 8
  %13 = alloca i32, align 4
  %14 = alloca ptr, align 8
  store ptr %0, ptr %5, align 8
  store ptr %1, ptr %6, align 8
  %15 = zext i1 %2 to i8
  store i8 %15, ptr %7, align 1
  store ptr %3, ptr %8, align 8
  call void @llvm.lifetime.start.p0(i64 1, ptr %9) #10
  store i8 1, ptr %9, align 1
  call void @llvm.lifetime.start.p0(i64 1, ptr %10) #10
  store i8 0, ptr %10, align 1
  br label %16

16:                                               ; preds = %92, %4
  call void @llvm.lifetime.start.p0(i64 8, ptr %11) #10
  call void @llvm.lifetime.start.p0(i64 8, ptr %12) #10
  %17 = load ptr, ptr %5, align 8
  %18 = icmp ne ptr %17, null
  br i1 %18, label %19, label %21

19:                                               ; preds = %16
  %20 = load ptr, ptr %5, align 8
  store ptr %20, ptr %11, align 8
  br label %33

21:                                               ; preds = %16
  %22 = load ptr, ptr %6, align 8
  %23 = call ptr @psql_scan_slash_option(ptr noundef %22, i32 noundef 0, ptr noundef null, i1 noundef zeroext false)
  store ptr %23, ptr %11, align 8
  %24 = load ptr, ptr %11, align 8
  %25 = icmp ne ptr %24, null
  br i1 %25, label %32, label %26

26:                                               ; preds = %21
  %27 = load i8, ptr %7, align 1, !range !4, !noundef !5
  %28 = trunc i8 %27 to i1
  br i1 %28, label %29, label %31

29:                                               ; preds = %26
  %30 = load ptr, ptr %8, align 8
  call void (i32, i32, ptr, ...) @pg_log_generic(i32 noundef 4, i32 noundef 0, ptr noundef @.str.247, ptr noundef %30)
  store i8 0, ptr %9, align 1
  br label %31

31:                                               ; preds = %29, %26
  store i32 2, ptr %13, align 4
  br label %89

32:                                               ; preds = %21
  br label %33

33:                                               ; preds = %32, %19
  %34 = load ptr, ptr %11, align 8
  %35 = call i64 @strlen(ptr noundef %34) #11
  store i64 %35, ptr %12, align 8
  %36 = load i64, ptr %12, align 8
  %37 = icmp ugt i64 %36, 0
  br i1 %37, label %38, label %51

38:                                               ; preds = %33
  %39 = load ptr, ptr %11, align 8
  %40 = load i64, ptr %12, align 8
  %41 = sub i64 %40, 1
  %42 = getelementptr inbounds nuw i8, ptr %39, i64 %41
  %43 = load i8, ptr %42, align 1
  %44 = sext i8 %43 to i32
  %45 = icmp eq i32 %44, 41
  br i1 %45, label %46, label %51

46:                                               ; preds = %38
  %47 = load ptr, ptr %11, align 8
  %48 = load i64, ptr %12, align 8
  %49 = add i64 %48, -1
  store i64 %49, ptr %12, align 8
  %50 = getelementptr inbounds nuw i8, ptr %47, i64 %49
  store i8 0, ptr %50, align 1
  store i8 1, ptr %10, align 1
  br label %51

51:                                               ; preds = %46, %38, %33
  %52 = load i64, ptr %12, align 8
  %53 = icmp ugt i64 %52, 0
  br i1 %53, label %54, label %82

54:                                               ; preds = %51
  call void @llvm.lifetime.start.p0(i64 8, ptr %14) #10
  %55 = load ptr, ptr %11, align 8
  %56 = call ptr @strchr(ptr noundef %55, i32 noundef 61) #11
  store ptr %56, ptr %14, align 8
  %57 = load ptr, ptr %14, align 8
  %58 = icmp ne ptr %57, null
  br i1 %58, label %59, label %62

59:                                               ; preds = %54
  %60 = load ptr, ptr %14, align 8
  %61 = getelementptr inbounds nuw i8, ptr %60, i32 1
  store ptr %61, ptr %14, align 8
  store i8 0, ptr %60, align 1
  br label %62

62:                                               ; preds = %59, %54
  %63 = load i8, ptr %7, align 1, !range !4, !noundef !5
  %64 = trunc i8 %63 to i1
  br i1 %64, label %65, label %81

65:                                               ; preds = %62
  %66 = load ptr, ptr getelementptr inbounds nuw (%struct._psqlSettings, ptr @pset, i32 0, i32 8), align 8
  %67 = icmp eq ptr %66, null
  br i1 %67, label %68, label %70

68:                                               ; preds = %65
  %69 = call ptr @savePsetInfo(ptr noundef getelementptr inbounds nuw (%struct._psqlSettings, ptr @pset, i32 0, i32 6))
  store ptr %69, ptr getelementptr inbounds nuw (%struct._psqlSettings, ptr @pset, i32 0, i32 8), align 8
  br label %70

70:                                               ; preds = %68, %65
  %71 = load ptr, ptr %11, align 8
  %72 = load ptr, ptr %14, align 8
  %73 = call zeroext i1 @do_pset(ptr noundef %71, ptr noundef %72, ptr noundef getelementptr inbounds nuw (%struct._psqlSettings, ptr @pset, i32 0, i32 6), i1 noundef zeroext true)
  %74 = zext i1 %73 to i32
  %75 = load i8, ptr %9, align 1, !range !4, !noundef !5
  %76 = trunc i8 %75 to i1
  %77 = zext i1 %76 to i32
  %78 = and i32 %77, %74
  %79 = icmp ne i32 %78, 0
  %80 = zext i1 %79 to i8
  store i8 %80, ptr %9, align 1
  br label %81

81:                                               ; preds = %70, %62
  call void @llvm.lifetime.end.p0(i64 8, ptr %14) #10
  br label %82

82:                                               ; preds = %81, %51
  %83 = load ptr, ptr %5, align 8
  %84 = icmp ne ptr %83, null
  br i1 %84, label %85, label %86

85:                                               ; preds = %82
  store ptr null, ptr %5, align 8
  br label %88

86:                                               ; preds = %82
  %87 = load ptr, ptr %11, align 8
  call void @free(ptr noundef %87) #10
  br label %88

88:                                               ; preds = %86, %85
  store i32 0, ptr %13, align 4
  br label %89

89:                                               ; preds = %88, %31
  call void @llvm.lifetime.end.p0(i64 8, ptr %12) #10
  call void @llvm.lifetime.end.p0(i64 8, ptr %11) #10
  %90 = load i32, ptr %13, align 4
  switch i32 %90, label %111 [
    i32 0, label %91
    i32 2, label %96
  ]

91:                                               ; preds = %89
  br label %92

92:                                               ; preds = %91
  %93 = load i8, ptr %10, align 1, !range !4, !noundef !5
  %94 = trunc i8 %93 to i1
  %95 = xor i1 %94, true
  br i1 %95, label %16, label %96, !llvm.loop !29

96:                                               ; preds = %92, %89
  %97 = load i8, ptr %9, align 1, !range !4, !noundef !5
  %98 = trunc i8 %97 to i1
  br i1 %98, label %107, label %99

99:                                               ; preds = %96
  %100 = load i8, ptr %7, align 1, !range !4, !noundef !5
  %101 = trunc i8 %100 to i1
  br i1 %101, label %102, label %107

102:                                              ; preds = %99
  %103 = load ptr, ptr getelementptr inbounds nuw (%struct._psqlSettings, ptr @pset, i32 0, i32 8), align 8
  %104 = icmp ne ptr %103, null
  br i1 %104, label %105, label %107

105:                                              ; preds = %102
  %106 = load ptr, ptr getelementptr inbounds nuw (%struct._psqlSettings, ptr @pset, i32 0, i32 8), align 8
  call void @restorePsetInfo(ptr noundef getelementptr inbounds nuw (%struct._psqlSettings, ptr @pset, i32 0, i32 6), ptr noundef %106)
  store ptr null, ptr getelementptr inbounds nuw (%struct._psqlSettings, ptr @pset, i32 0, i32 8), align 8
  br label %107

107:                                              ; preds = %105, %102, %99, %96
  %108 = load i8, ptr %9, align 1, !range !4, !noundef !5
  %109 = trunc i8 %108 to i1
  %110 = select i1 %109, i32 2, i32 5
  store i32 1, ptr %13, align 4
  call void @llvm.lifetime.end.p0(i64 1, ptr %10) #10
  call void @llvm.lifetime.end.p0(i64 1, ptr %9) #10
  ret i32 %110

111:                                              ; preds = %89
  unreachable
}

; Function Attrs: nounwind uwtable
define internal i32 @exec_command_g(ptr noundef %0, i1 noundef zeroext %1, ptr noundef %2) #0 {
  %4 = alloca ptr, align 8
  %5 = alloca i8, align 1
  %6 = alloca ptr, align 8
  %7 = alloca i32, align 4
  %8 = alloca ptr, align 8
  store ptr %0, ptr %4, align 8
  %9 = zext i1 %1 to i8
  store i8 %9, ptr %5, align 1
  store ptr %2, ptr %6, align 8
  call void @llvm.lifetime.start.p0(i64 4, ptr %7) #10
  store i32 2, ptr %7, align 4
  call void @llvm.lifetime.start.p0(i64 8, ptr %8) #10
  %10 = load ptr, ptr %4, align 8
  %11 = call ptr @psql_scan_slash_option(ptr noundef %10, i32 noundef 3, ptr noundef null, i1 noundef zeroext false)
  store ptr %11, ptr %8, align 8
  %12 = load ptr, ptr %8, align 8
  %13 = icmp ne ptr %12, null
  br i1 %13, label %14, label %31

14:                                               ; preds = %3
  %15 = load ptr, ptr %8, align 8
  %16 = getelementptr inbounds i8, ptr %15, i64 0
  %17 = load i8, ptr %16, align 1
  %18 = sext i8 %17 to i32
  %19 = icmp eq i32 %18, 40
  br i1 %19, label %20, label %31

20:                                               ; preds = %14
  %21 = load ptr, ptr %8, align 8
  %22 = getelementptr inbounds i8, ptr %21, i64 1
  %23 = load ptr, ptr %4, align 8
  %24 = load i8, ptr %5, align 1, !range !4, !noundef !5
  %25 = trunc i8 %24 to i1
  %26 = load ptr, ptr %6, align 8
  %27 = call i32 @process_command_g_options(ptr noundef %22, ptr noundef %23, i1 noundef zeroext %25, ptr noundef %26)
  store i32 %27, ptr %7, align 4
  %28 = load ptr, ptr %8, align 8
  call void @free(ptr noundef %28) #10
  %29 = load ptr, ptr %4, align 8
  %30 = call ptr @psql_scan_slash_option(ptr noundef %29, i32 noundef 3, ptr noundef null, i1 noundef zeroext false)
  store ptr %30, ptr %8, align 8
  br label %31

31:                                               ; preds = %20, %14, %3
  %32 = load i32, ptr %7, align 4
  %33 = icmp eq i32 %32, 2
  br i1 %33, label %34, label %55

34:                                               ; preds = %31
  %35 = load i8, ptr %5, align 1, !range !4, !noundef !5
  %36 = trunc i8 %35 to i1
  br i1 %36, label %37, label %55

37:                                               ; preds = %34
  %38 = load ptr, ptr %8, align 8
  %39 = icmp ne ptr %38, null
  br i1 %39, label %41, label %40

40:                                               ; preds = %37
  store ptr null, ptr getelementptr inbounds nuw (%struct._psqlSettings, ptr @pset, i32 0, i32 7), align 8
  br label %44

41:                                               ; preds = %37
  call void @expand_tilde(ptr noundef %8)
  %42 = load ptr, ptr %8, align 8
  %43 = call ptr @pg_strdup(ptr noundef %42)
  store ptr %43, ptr getelementptr inbounds nuw (%struct._psqlSettings, ptr @pset, i32 0, i32 7), align 8
  br label %44

44:                                               ; preds = %41, %40
  %45 = load ptr, ptr %6, align 8
  %46 = call i32 @strcmp(ptr noundef %45, ptr noundef @.str.103) #11
  %47 = icmp eq i32 %46, 0
  br i1 %47, label %48, label %54

48:                                               ; preds = %44
  %49 = load ptr, ptr getelementptr inbounds nuw (%struct._psqlSettings, ptr @pset, i32 0, i32 8), align 8
  %50 = icmp eq ptr %49, null
  br i1 %50, label %51, label %53

51:                                               ; preds = %48
  %52 = call ptr @savePsetInfo(ptr noundef getelementptr inbounds nuw (%struct._psqlSettings, ptr @pset, i32 0, i32 6))
  store ptr %52, ptr getelementptr inbounds nuw (%struct._psqlSettings, ptr @pset, i32 0, i32 8), align 8
  br label %53

53:                                               ; preds = %51, %48
  store i16 1, ptr getelementptr inbounds nuw (%struct.printTableOpt, ptr getelementptr inbounds nuw (%struct._psqlSettings, ptr @pset, i32 0, i32 6), i32 0, i32 1), align 4
  br label %54

54:                                               ; preds = %53, %44
  store i32 1, ptr %7, align 4
  br label %55

55:                                               ; preds = %54, %34, %31
  %56 = load ptr, ptr %8, align 8
  call void @free(ptr noundef %56) #10
  %57 = load i32, ptr %7, align 4
  call void @llvm.lifetime.end.p0(i64 8, ptr %8) #10
  call void @llvm.lifetime.end.p0(i64 4, ptr %7) #10
  ret i32 %57
}