; Function Attrs: nounwind uwtable
define internal fastcc range(i32 1, 6) i32 @exec_command_g(ptr noundef %0, i1 noundef zeroext %1, ptr noundef %2) unnamed_addr #0 {
  %4 = alloca ptr, align 8
  call void @llvm.lifetime.start.p0(i64 8, ptr nonnull %4) #16
  %5 = tail call ptr @psql_scan_slash_option(ptr noundef %0, i32 noundef 3, ptr noundef null, i1 noundef zeroext false) #16
  store ptr %5, ptr %4, align 8
  %.not = icmp eq ptr %5, null
  br i1 %.not, label %70, label %6

6:                                                ; preds = %3
  %7 = load i8, ptr %5, align 1
  %8 = icmp eq i8 %7, 40
  br i1 %8, label %9, label %.thread

9:                                                ; preds = %6
  %10 = getelementptr inbounds nuw i8, ptr %5, i64 1
  br i1 %1, label %.split.us.i, label %.split.i

.split.us.i:                                      ; preds = %9, %38
  %.034.us.i = phi ptr [ null, %38 ], [ %10, %9 ]
  %.031.us.i = phi i8 [ %.3.us.i, %38 ], [ 1, %9 ]
  %.not.us.i = icmp eq ptr %.034.us.i, null
  br i1 %.not.us.i, label %11, label %13

11:                                               ; preds = %.split.us.i
  %12 = tail call ptr @psql_scan_slash_option(ptr noundef %0, i32 noundef 0, ptr noundef null, i1 noundef zeroext false) #16
  %.not43.us.i = icmp eq ptr %12, null
  br i1 %.not43.us.i, label %.split66.us.i, label %13

13:                                               ; preds = %11, %.split.us.i
  %.029.us.i = phi ptr [ %12, %11 ], [ %.034.us.i, %.split.us.i ]
  %14 = tail call i64 @strlen(ptr noundef nonnull dereferenceable(1) %.029.us.i) #17
  %.not44.us.i = icmp eq i64 %14, 0
  br i1 %.not44.us.i, label %.thread.us.i, label %15

15:                                               ; preds = %13
  %16 = getelementptr i8, ptr %.029.us.i, i64 %14
  %17 = getelementptr i8, ptr %16, i64 -1
  %18 = load i8, ptr %17, align 1
  %19 = icmp eq i8 %18, 41
  br i1 %19, label %20, label %.thread50.us.i

20:                                               ; preds = %15
  %21 = add i64 %14, -1
  %22 = getelementptr inbounds nuw i8, ptr %.029.us.i, i64 %21
  store i8 0, ptr %22, align 1
  %23 = icmp eq i64 %21, 0
  br i1 %23, label %.thread.us.i, label %.thread50.us.i

.thread50.us.i:                                   ; preds = %20, %15
  %24 = tail call ptr @strchr(ptr noundef nonnull dereferenceable(1) %.029.us.i, i32 noundef 61) #17
  %.not46.us.i = icmp eq ptr %24, null
  br i1 %.not46.us.i, label %27, label %25

25:                                               ; preds = %.thread50.us.i
  %26 = getelementptr inbounds nuw i8, ptr %24, i64 1
  store i8 0, ptr %24, align 1
  br label %27

27:                                               ; preds = %25, %.thread50.us.i
  %.0.us.i = phi ptr [ %26, %25 ], [ null, %.thread50.us.i ]
  %28 = load ptr, ptr getelementptr inbounds nuw (i8, ptr @pset, i64 224), align 8
  %29 = icmp eq ptr %28, null
  br i1 %29, label %30, label %32

30:                                               ; preds = %27
  %31 = tail call ptr @savePsetInfo(ptr noundef nonnull getelementptr inbounds nuw (i8, ptr @pset, i64 48))
  store ptr %31, ptr getelementptr inbounds nuw (i8, ptr @pset, i64 224), align 8
  br label %32

32:                                               ; preds = %30, %27
  %33 = tail call zeroext i1 @do_pset(ptr noundef nonnull %.029.us.i, ptr noundef %.0.us.i, ptr noundef nonnull getelementptr inbounds nuw (i8, ptr @pset, i64 48), i1 noundef zeroext true)
  %34 = icmp ne i8 %.031.us.i, 0
  %35 = select i1 %33, i1 %34, i1 false
  %36 = zext i1 %35 to i8
  br label %.thread.us.i

.thread.us.i:                                     ; preds = %32, %20, %13
  %.249.us.i = phi i1 [ true, %20 ], [ %19, %32 ], [ false, %13 ]
  %.3.us.i = phi i8 [ %.031.us.i, %20 ], [ %36, %32 ], [ %.031.us.i, %13 ]
  br i1 %.not.us.i, label %37, label %38

37:                                               ; preds = %.thread.us.i
  tail call void @free(ptr noundef nonnull %.029.us.i) #16
  br label %38

38:                                               ; preds = %37, %.thread.us.i
  br i1 %.249.us.i, label %.loopexit.i, label %.split.us.i, !llvm.loop !21

.split.i:                                         ; preds = %9, %55
  %.034.i = phi ptr [ null, %55 ], [ %10, %9 ]
  %.not.i = icmp eq ptr %.034.i, null
  br i1 %.not.i, label %39, label %41

39:                                               ; preds = %.split.i
  %40 = tail call ptr @psql_scan_slash_option(ptr noundef %0, i32 noundef 0, ptr noundef null, i1 noundef zeroext false) #16
  %.not43.i = icmp eq ptr %40, null
  br i1 %.not43.i, label %.split66.us.i, label %41

.split66.us.i:                                    ; preds = %39, %11
  %.us-phi.i = phi i8 [ %.031.us.i, %11 ], [ 1, %39 ]
  br i1 %1, label %.thread62.i, label %.loopexit.i

.thread62.i:                                      ; preds = %.split66.us.i
  tail call void (i32, i32, ptr, ...) @pg_log_generic(i32 noundef 4, i32 noundef 0, ptr noundef nonnull @.str.247, ptr noundef %2) #16
  br label %57

41:                                               ; preds = %39, %.split.i
  %.029.i = phi ptr [ %40, %39 ], [ %.034.i, %.split.i ]
  %42 = tail call i64 @strlen(ptr noundef nonnull dereferenceable(1) %.029.i) #17
  %.not44.i = icmp eq i64 %42, 0
  br i1 %.not44.i, label %.thread.i, label %43

43:                                               ; preds = %41
  %44 = getelementptr i8, ptr %.029.i, i64 %42
  %45 = getelementptr i8, ptr %44, i64 -1
  %46 = load i8, ptr %45, align 1
  %47 = icmp eq i8 %46, 41
  br i1 %47, label %48, label %.thread50.i

48:                                               ; preds = %43
  %49 = add i64 %42, -1
  %50 = getelementptr inbounds nuw i8, ptr %.029.i, i64 %49
  store i8 0, ptr %50, align 1
  %51 = icmp eq i64 %49, 0
  br i1 %51, label %.thread.i, label %.thread50.i

.thread50.i:                                      ; preds = %48, %43
  %52 = tail call ptr @strchr(ptr noundef nonnull dereferenceable(1) %.029.i, i32 noundef 61) #17
  %.not46.i = icmp eq ptr %52, null
  br i1 %.not46.i, label %.thread.i, label %53

53:                                               ; preds = %.thread50.i
  store i8 0, ptr %52, align 1
  br label %.thread.i

.thread.i:                                        ; preds = %53, %.thread50.i, %48, %41
  %.249.i = phi i1 [ true, %48 ], [ false, %41 ], [ %47, %53 ], [ %47, %.thread50.i ]
  br i1 %.not.i, label %54, label %55

54:                                               ; preds = %.thread.i
  tail call void @free(ptr noundef nonnull %.029.i) #16
  br label %55

55:                                               ; preds = %54, %.thread.i
  br i1 %.249.i, label %process_command_g_options.exit, label %.split.i, !llvm.loop !21

.loopexit.i:                                      ; preds = %38, %.split66.us.i
  %.23359.i = phi i8 [ %.us-phi.i, %.split66.us.i ], [ %.3.us.i, %38 ]
  %56 = trunc nuw i8 %.23359.i to i1
  br i1 %56, label %process_command_g_options.exit, label %57

57:                                               ; preds = %.loopexit.i, %.thread62.i
  %58 = load ptr, ptr getelementptr inbounds nuw (i8, ptr @pset, i64 224), align 8
  %59 = icmp ne ptr %58, null
  %or.cond.i = select i1 %1, i1 %59, i1 false
  br i1 %or.cond.i, label %60, label %process_command_g_options.exit

60:                                               ; preds = %57
  %61 = load ptr, ptr getelementptr inbounds nuw (i8, ptr @pset, i64 96), align 8
  tail call void @free(ptr noundef %61) #16
  %62 = load ptr, ptr getelementptr inbounds nuw (i8, ptr @pset, i64 112), align 8
  tail call void @free(ptr noundef %62) #16
  %63 = load ptr, ptr getelementptr inbounds nuw (i8, ptr @pset, i64 136), align 8
  tail call void @free(ptr noundef %63) #16
  %64 = load ptr, ptr getelementptr inbounds nuw (i8, ptr @pset, i64 168), align 8
  tail call void @free(ptr noundef %64) #16
  %65 = load ptr, ptr getelementptr inbounds nuw (i8, ptr @pset, i64 176), align 8
  tail call void @free(ptr noundef %65) #16
  tail call void @llvm.memcpy.p0.p0.i64(ptr noundef nonnull align 8 dereferenceable(168) getelementptr inbounds nuw (i8, ptr @pset, i64 48), ptr noundef nonnull align 8 dereferenceable(168) %58, i64 168, i1 false)
  tail call void @free(ptr noundef nonnull %58) #16
  store ptr null, ptr getelementptr inbounds nuw (i8, ptr @pset, i64 224), align 8
  br label %process_command_g_options.exit

process_command_g_options.exit:                   ; preds = %55, %.loopexit.i, %57, %60
  %66 = phi i32 [ 5, %60 ], [ 5, %57 ], [ 2, %.loopexit.i ], [ 2, %55 ]
  %67 = load ptr, ptr %4, align 8
  tail call void @free(ptr noundef %67) #16
  %68 = tail call ptr @psql_scan_slash_option(ptr noundef %0, i32 noundef 3, ptr noundef null, i1 noundef zeroext false) #16
  store ptr %68, ptr %4, align 8
  %69 = icmp eq ptr %68, null
  br label %70

70:                                               ; preds = %process_command_g_options.exit, %3
  %.not9 = phi i1 [ %69, %process_command_g_options.exit ], [ true, %3 ]
  %.0 = phi i32 [ %66, %process_command_g_options.exit ], [ 2, %3 ]
  %71 = icmp eq i32 %.0, 2
  %brmerge.not = and i1 %1, %71
  br i1 %brmerge.not, label %72, label %.tail.thread

.thread:                                          ; preds = %6
  br i1 %1, label %.thread23, label %.tail.thread

72:                                               ; preds = %70
  br i1 %.not9, label %sub_0, label %.thread23

.thread23:                                        ; preds = %.thread, %72
  call void @expand_tilde(ptr noundef nonnull %4) #16
  %73 = load ptr, ptr %4, align 8
  %74 = call ptr @pg_strdup(ptr noundef %73) #16
  br label %sub_0

sub_0:                                            ; preds = %72, %.thread23
  %storemerge = phi ptr [ %74, %.thread23 ], [ null, %72 ]
  store ptr %storemerge, ptr getelementptr inbounds nuw (i8, ptr @pset, i64 216), align 8
  %75 = load i8, ptr %2, align 1
  %.not15 = icmp eq i8 %75, 103
  br i1 %.not15, label %sub_1, label %.tail.thread

sub_1:                                            ; preds = %sub_0
  %76 = getelementptr inbounds nuw i8, ptr %2, i64 1
  %77 = load i8, ptr %76, align 1
  %.not16 = icmp eq i8 %77, 120
  br i1 %.not16, label %.tail, label %.tail.thread

.tail:                                            ; preds = %sub_1
  %78 = getelementptr inbounds nuw i8, ptr %2, i64 2
  %79 = load i8, ptr %78, align 1
  %80 = icmp eq i8 %79, 0
  br i1 %80, label %81, label %.tail.thread

81:                                               ; preds = %.tail
  %82 = load ptr, ptr getelementptr inbounds nuw (i8, ptr @pset, i64 224), align 8
  %83 = icmp eq ptr %82, null
  br i1 %83, label %84, label %86

84:                                               ; preds = %81
  %85 = call ptr @savePsetInfo(ptr noundef nonnull getelementptr inbounds nuw (i8, ptr @pset, i64 48))
  store ptr %85, ptr getelementptr inbounds nuw (i8, ptr @pset, i64 224), align 8
  br label %86

86:                                               ; preds = %84, %81
  store i16 1, ptr getelementptr inbounds nuw (i8, ptr @pset, i64 52), align 4
  br label %.tail.thread

.tail.thread:                                     ; preds = %sub_1, %sub_0, %.thread, %.tail, %86, %70
  %.1 = phi i32 [ %.0, %70 ], [ 1, %86 ], [ 1, %.tail ], [ 2, %.thread ], [ 1, %sub_0 ], [ 1, %sub_1 ]
  %87 = load ptr, ptr %4, align 8
  call void @free(ptr noundef %87) #16
  call void @llvm.lifetime.end.p0(i64 8, ptr nonnull %4) #16
  ret i32 %.1
}